; Function Attrs: nounwind uwtable
define internal fastcc range(i32 0, 2) i32 @test_multi_shared_pkey_common(ptr noundef %0) unnamed_addr #1 {
  store i1 true, ptr @multi_success, align 4
  store ptr null, ptr @multi_libctx, align 8, !tbaa !16
  store i64 0, ptr @multi_num_threads, align 8, !tbaa !12
  tail call void @llvm.memset.p0.i64(ptr noundef nonnull align 16 dereferenceable(80) @multi_threads, i8 0, i64 80, i1 false)
  tail call void @llvm.memset.p0.i64(ptr noundef nonnull align 16 dereferenceable(40) @multi_provider, i8 0, i64 40, i1 false)
  %.b = load i1, ptr @do_fips, align 4
  %2 = select i1 %.b, ptr @fips_and_default_providers, ptr @default_provider
  %3 = tail call fastcc i32 @thread_setup_libctx(i32 noundef 1, ptr noundef nonnull %2)
  %.not = icmp eq i32 %3, 0
  br i1 %.not, label %teardown_threads.exit, label %4

4:                                                ; preds = %1
  %5 = load ptr, ptr @privkey, align 8, !tbaa !6
  %6 = load ptr, ptr @multi_libctx, align 8, !tbaa !16
  %7 = tail call ptr @load_pkey_pem(ptr noundef %5, ptr noundef %6) #11
  store ptr %7, ptr @shared_evp_pkey, align 8, !tbaa !18
  %8 = tail call i32 @test_ptr(ptr noundef nonnull @.str.18, i32 noundef 978, ptr noundef nonnull @.str.138, ptr noundef %7) #11
  %.not2 = icmp eq i32 %8, 0
  br i1 %.not2, label %teardown_threads.exit, label %9

9:                                                ; preds = %4
  %10 = load i64, ptr @multi_num_threads, align 8, !tbaa !12
  %11 = add i64 %10, 1
  %12 = tail call i32 @test_size_t_le(ptr noundef nonnull @.str.18, i32 noundef 780, ptr noundef nonnull @.str.49, ptr noundef nonnull @.str.50, i64 noundef %11, i64 noundef 10) #11
  %.not.i = icmp eq i32 %12, 0
  br i1 %.not.i, label %teardown_threads.exit, label %.preheader.i.preheader

.preheader.i.preheader:                           ; preds = %9
  %13 = load i64, ptr @multi_num_threads, align 8, !tbaa !12
  %14 = add i64 %13, 1
  store i64 %14, ptr @multi_num_threads, align 8, !tbaa !12
  %15 = getelementptr inbounds nuw i64, ptr @multi_threads, i64 %13
  %16 = tail call i32 @pthread_create(ptr noundef nonnull %15, ptr noundef null, ptr noundef nonnull @thread_run, ptr noundef nonnull @thread_shared_evp_pkey) #11
  %17 = icmp eq i32 %16, 0
  %18 = zext i1 %17 to i32
  %19 = tail call i32 @test_true(ptr noundef nonnull @.str.18, i32 noundef 784, ptr noundef nonnull @.str.51, i32 noundef %18) #11
  %.not6.i = icmp eq i32 %19, 0
  br i1 %.not6.i, label %teardown_threads.exit, label %start_threads.exit

start_threads.exit:                               ; preds = %.preheader.i.preheader
  %20 = load i64, ptr @multi_num_threads, align 8, !tbaa !12
  %21 = add i64 %20, 1
  %22 = tail call i32 @test_size_t_le(ptr noundef nonnull @.str.18, i32 noundef 780, ptr noundef nonnull @.str.49, ptr noundef nonnull @.str.50, i64 noundef %21, i64 noundef 10) #11
  %.not.i7 = icmp eq i32 %22, 0
  br i1 %.not.i7, label %teardown_threads.exit, label %.preheader.i8.preheader

.preheader.i8.preheader:                          ; preds = %start_threads.exit
  %23 = load i64, ptr @multi_num_threads, align 8, !tbaa !12
  %24 = add i64 %23, 1
  store i64 %24, ptr @multi_num_threads, align 8, !tbaa !12
  %25 = getelementptr inbounds nuw i64, ptr @multi_threads, i64 %23
  %26 = tail call i32 @pthread_create(ptr noundef nonnull %25, ptr noundef null, ptr noundef nonnull @thread_run, ptr noundef %0) #11
  %27 = icmp eq i32 %26, 0
  %28 = zext i1 %27 to i32
  %29 = tail call i32 @test_true(ptr noundef nonnull @.str.18, i32 noundef 784, ptr noundef nonnull @.str.51, i32 noundef %28) #11
  %.not6.i10 = icmp eq i32 %29, 0
  br i1 %.not6.i10, label %teardown_threads.exit, label %start_threads.exit13

start_threads.exit13:                             ; preds = %.preheader.i8.preheader
  tail call void @thread_shared_evp_pkey()
  %30 = load i64, ptr @multi_num_threads, align 8, !tbaa !12
  %.not8.i = icmp eq i64 %30, 0
  br i1 %.not8.i, label %.loopexit, label %.lr.ph.i

31:                                               ; preds = %.lr.ph.i
  %32 = add nuw i64 %.05.i14, 1
  %33 = load i64, ptr @multi_num_threads, align 8, !tbaa !12
  %34 = icmp ult i64 %32, %33
  br i1 %34, label %.lr.ph.i, label %.loopexit, !llvm.loop !22

.lr.ph.i:                                         ; preds = %start_threads.exit13, %31
  %.05.i14 = phi i64 [ %32, %31 ], [ 0, %start_threads.exit13 ]
  %35 = getelementptr inbounds nuw [10 x i64], ptr @multi_threads, i64 0, i64 %.05.i14
  %36 = load i64, ptr %35, align 8, !tbaa !12
  %37 = tail call i32 @pthread_join(i64 noundef %36, ptr noundef null) #11
  %38 = icmp eq i32 %37, 0
  %39 = zext i1 %38 to i32
  %40 = tail call i32 @test_true(ptr noundef nonnull @.str.18, i32 noundef 771, ptr noundef nonnull @.str.52, i32 noundef %39) #11
  %.not.i15 = icmp eq i32 %40, 0
  br i1 %.not.i15, label %teardown_threads.exit, label %31

.loopexit:                                        ; preds = %31, %start_threads.exit13
  %.b1 = load i1, ptr @multi_success, align 4
  %41 = zext i1 %.b1 to i32
  %42 = tail call i32 @test_true(ptr noundef nonnull @.str.18, i32 noundef 986, ptr noundef nonnull @.str.44, i32 noundef %41) #11
  %.not6 = icmp ne i32 %42, 0
  %spec.select = zext i1 %.not6 to i32
  br label %teardown_threads.exit

teardown_threads.exit:                            ; preds = %.lr.ph.i, %.preheader.i.preheader, %.preheader.i8.preheader, %start_threads.exit, %9, %.loopexit, %1, %4
  %.0 = phi i32 [ 0, %4 ], [ 0, %1 ], [ %spec.select, %.loopexit ], [ 0, %9 ], [ 0, %start_threads.exit ], [ 0, %.preheader.i8.preheader ], [ 0, %.preheader.i.preheader ], [ 0, %.lr.ph.i ]
  %43 = load ptr, ptr @shared_evp_pkey, align 8, !tbaa !18
  tail call void @EVP_PKEY_free(ptr noundef %43) #11
  %44 = load ptr, ptr @multi_provider, align 16, !tbaa !24
  %.not4.i = icmp eq ptr %44, null
  br i1 %.not4.i, label %thead_teardown_libctx.exit, label %.lr.ph.i16

.lr.ph.i16:                                       ; preds = %teardown_threads.exit, %.lr.ph.i16
  %45 = phi ptr [ %48, %.lr.ph.i16 ], [ %44, %teardown_threads.exit ]
  %.05.i17 = phi ptr [ %47, %.lr.ph.i16 ], [ @multi_provider, %teardown_threads.exit ]
  %46 = tail call i32 @OSSL_PROVIDER_unload(ptr noundef nonnull %45) #11
  %47 = getelementptr inbounds nuw i8, ptr %.05.i17, i64 8
  %48 = load ptr, ptr %47, align 8, !tbaa !24
  %.not.i18 = icmp eq ptr %48, null
  br i1 %.not.i18, label %thead_teardown_libctx.exit, label %.lr.ph.i16, !llvm.loop !26

thead_teardown_libctx.exit:                       ; preds = %.lr.ph.i16, %teardown_threads.exit
  %49 = load ptr, ptr @multi_libctx, align 8, !tbaa !16
  tail call void @OSSL_LIB_CTX_free(ptr noundef %49) #11
  store i1 true, ptr @multi_success, align 4
  store ptr null, ptr @multi_libctx, align 8, !tbaa !16
  store i64 0, ptr @multi_num_threads, align 8, !tbaa !12
  tail call void @llvm.memset.p0.i64(ptr noundef nonnull align 16 dereferenceable(80) @multi_threads, i8 0, i64 80, i1 false)
  tail call void @llvm.memset.p0.i64(ptr noundef nonnull align 16 dereferenceable(40) @multi_provider, i8 0, i64 40, i1 false)
  ret i32 %.0
}